TN:
SF:/usr/include/c++/11/iostream
end_of_record
SF:/home/glebas/Desktop/ППОИС/lab1/source.cpp
FN:6,_ZN9Rectangle4moveEii
FNDA:1,_ZN9Rectangle4moveEii
FN:16,_ZN9Rectangle6resizeEii
FNDA:1,_ZN9Rectangle6resizeEii
FN:24,_ZN9RectangleppEv
FNDA:2,_ZN9RectangleppEv
FN:30,_ZN9RectangleppEi
FNDA:1,_ZN9RectangleppEi
FN:37,_ZN9RectanglemmEv
FNDA:2,_ZN9RectanglemmEv
FN:43,_ZN9RectanglemmEi
FNDA:1,_ZN9RectanglemmEi
FN:50,_ZplRK9RectangleS1_
FNDA:1,_ZplRK9RectangleS1_
FN:59,_ZN9RectanglepLERKS_
FNDA:1,_ZN9RectanglepLERKS_
FN:68,_ZmiRK9RectangleS1_
FNDA:2,_ZmiRK9RectangleS1_
FN:82,_ZN9RectanglemIERKS_
FNDA:1,_ZN9RectanglemIERKS_
FN:86,_ZNK9RectangleeqERKS_
FNDA:10,_ZNK9RectangleeqERKS_
DA:6,1
DA:8,1
DA:9,1
DA:10,1
DA:11,1
DA:12,1
DA:16,1
DA:18,1
DA:19,1
DA:20,1
DA:24,2
DA:25,2
DA:26,2
DA:27,2
DA:30,1
DA:31,1
DA:32,1
DA:33,1
DA:37,2
DA:38,2
DA:39,2
DA:40,2
DA:43,1
DA:44,1
DA:45,1
DA:46,1
DA:50,1
DA:51,1
DA:52,1
DA:53,1
DA:54,1
DA:55,1
DA:59,1
DA:60,1
DA:61,1
DA:62,1
DA:63,1
DA:64,1
DA:68,2
DA:69,2
DA:70,2
DA:71,2
DA:72,2
DA:73,2
DA:75,1
DA:77,1
DA:82,1
DA:83,1
DA:84,1
DA:86,10
DA:87,10
end_of_record
SF:/home/glebas/Desktop/ППОИС/lab1/Header.h
FN:9,_ZN9RectangleC2Eiiii
FNDA:0,_ZN9RectangleC2Eiiii
DA:9,0
end_of_record
SF:/usr/include/c++/11/bits/stl_algobase.h
FN:230,_ZSt3minIiERKT_S2_S2_
FNDA:8,_ZSt3minIiERKT_S2_S2_
FN:254,_ZSt3maxIiERKT_S2_S2_
FNDA:8,_ZSt3maxIiERKT_S2_S2_
DA:230,8
DA:235,8
DA:236,0
DA:237,8
DA:254,8
DA:259,8
DA:260,8
DA:261,0
end_of_record
TN:
SF:/usr/local/include/gtest/internal/gtest-port.h
FN:1082,_ZN7testing8internal8GTestLog9GetStreamEv
FNDA:0,_ZN7testing8internal8GTestLog9GetStreamEv
DA:1082,0
end_of_record
SF:/usr/include/c++/11/bits/unique_ptr.h
FN:79,_ZNKSt14default_deleteINSt7__cxx1112basic_stringIcSt11char_traitsIcESaIcEEEEclEPS5_
FNDA:0,_ZNKSt14default_deleteINSt7__cxx1112basic_stringIcSt11char_traitsIcESaIcEEEEclEPS5_
FN:79,_ZNKSt14default_deleteINSt7__cxx1118basic_stringstreamIcSt11char_traitsIcESaIcEEEEclEPS5_
FNDA:240,_ZNKSt14default_deleteINSt7__cxx1118basic_stringstreamIcSt11char_traitsIcESaIcEEEEclEPS5_
FN:172,_ZNSt15__uniq_ptr_implINSt7__cxx1112basic_stringIcSt11char_traitsIcESaIcEEESt14default_deleteIS5_EE6_M_ptrEv
FNDA:40,_ZNSt15__uniq_ptr_implINSt7__cxx1112basic_stringIcSt11char_traitsIcESaIcEEESt14default_deleteIS5_EE6_M_ptrEv
FN:172,_ZNSt15__uniq_ptr_implINSt7__cxx1118basic_stringstreamIcSt11char_traitsIcESaIcEEESt14default_deleteIS5_EE6_M_ptrEv
FNDA:480,_ZNSt15__uniq_ptr_implINSt7__cxx1118basic_stringstreamIcSt11char_traitsIcESaIcEEESt14default_deleteIS5_EE6_M_ptrEv
FN:173,_ZNKSt15__uniq_ptr_implINSt7__cxx1112basic_stringIcSt11char_traitsIcESaIcEEESt14default_deleteIS5_EE6_M_ptrEv
FNDA:0,_ZNKSt15__uniq_ptr_implINSt7__cxx1112basic_stringIcSt11char_traitsIcESaIcEEESt14default_deleteIS5_EE6_M_ptrEv
FN:174,_ZNSt15__uniq_ptr_implINSt7__cxx1118basic_stringstreamIcSt11char_traitsIcESaIcEEESt14default_deleteIS5_EE10_M_deleterEv
FNDA:240,_ZNSt15__uniq_ptr_implINSt7__cxx1118basic_stringstreamIcSt11char_traitsIcESaIcEEESt14default_deleteIS5_EE10_M_deleterEv
FN:174,_ZNSt15__uniq_ptr_implINSt7__cxx1112basic_stringIcSt11char_traitsIcESaIcEEESt14default_deleteIS5_EE10_M_deleterEv
FNDA:0,_ZNSt15__uniq_ptr_implINSt7__cxx1112basic_stringIcSt11char_traitsIcESaIcEEESt14default_deleteIS5_EE10_M_deleterEv
FN:355,_ZNSt10unique_ptrINSt7__cxx1112basic_stringIcSt11char_traitsIcESaIcEEESt14default_deleteIS5_EED2Ev
FNDA:40,_ZNSt10unique_ptrINSt7__cxx1112basic_stringIcSt11char_traitsIcESaIcEEESt14default_deleteIS5_EED2Ev
FN:355,_ZNSt10unique_ptrINSt7__cxx1118basic_stringstreamIcSt11char_traitsIcESaIcEEESt14default_deleteIS5_EED2Ev
FNDA:240,_ZNSt10unique_ptrINSt7__cxx1118basic_stringstreamIcSt11char_traitsIcESaIcEEESt14default_deleteIS5_EED2Ev
FN:413,_ZNKSt10unique_ptrINSt7__cxx1112basic_stringIcSt11char_traitsIcESaIcEEESt14default_deleteIS5_EEptEv
FNDA:0,_ZNKSt10unique_ptrINSt7__cxx1112basic_stringIcSt11char_traitsIcESaIcEEESt14default_deleteIS5_EEptEv
FN:421,_ZNKSt10unique_ptrINSt7__cxx1112basic_stringIcSt11char_traitsIcESaIcEEESt14default_deleteIS5_EE3getEv
FNDA:0,_ZNKSt10unique_ptrINSt7__cxx1112basic_stringIcSt11char_traitsIcESaIcEEESt14default_deleteIS5_EE3getEv
FN:426,_ZNSt10unique_ptrINSt7__cxx1112basic_stringIcSt11char_traitsIcESaIcEEESt14default_deleteIS5_EE11get_deleterEv
FNDA:0,_ZNSt10unique_ptrINSt7__cxx1112basic_stringIcSt11char_traitsIcESaIcEEESt14default_deleteIS5_EE11get_deleterEv
FN:426,_ZNSt10unique_ptrINSt7__cxx1118basic_stringstreamIcSt11char_traitsIcESaIcEEESt14default_deleteIS5_EE11get_deleterEv
FNDA:240,_ZNSt10unique_ptrINSt7__cxx1118basic_stringstreamIcSt11char_traitsIcESaIcEEESt14default_deleteIS5_EE11get_deleterEv
FN:435,_ZNKSt10unique_ptrINSt7__cxx1112basic_stringIcSt11char_traitsIcESaIcEEESt14default_deleteIS5_EEcvbEv
FNDA:0,_ZNKSt10unique_ptrINSt7__cxx1112basic_stringIcSt11char_traitsIcESaIcEEESt14default_deleteIS5_EEcvbEv
FN:781,_ZStneINSt7__cxx1112basic_stringIcSt11char_traitsIcESaIcEEESt14default_deleteIS5_EEbRKSt10unique_ptrIT_T0_EDn
FNDA:0,_ZStneINSt7__cxx1112basic_stringIcSt11char_traitsIcESaIcEEESt14default_deleteIS5_EEbRKSt10unique_ptrIT_T0_EDn
DA:79,0
DA:85,0
DA:86,0
DA:79,240
DA:85,240
DA:86,240
DA:172,40
DA:172,480
DA:173,0
DA:174,240
DA:174,0
DA:355,40
DA:359,40
DA:360,40
DA:361,0
DA:362,40
DA:363,40
DA:355,240
DA:359,240
DA:360,240
DA:361,240
DA:362,240
DA:363,240
DA:413,0
DA:416,0
DA:421,0
DA:422,0
DA:426,0
DA:427,0
DA:426,240
DA:427,240
DA:435,0
DA:436,0
DA:781,0
DA:782,0
end_of_record
SF:/usr/local/include/gtest/gtest-printers.h
FN:311,_ZN7testing8internal15RawBytesPrinter10PrintValueI9RectangleLm16EEEvRKT_PSo
FNDA:0,_ZN7testing8internal15RawBytesPrinter10PrintValueI9RectangleLm16EEEvRKT_PSo
FN:348,_ZN7testing8internal17PrintWithFallbackI9RectangleEEvRKT_PSo
FNDA:0,_ZN7testing8internal17PrintWithFallbackI9RectangleEEvRKT_PSo
FN:379,_ZN7testing8internal19FormatForComparisonI9RectangleS2_E6FormatB5cxx11ERKS2_
FNDA:0,_ZN7testing8internal19FormatForComparisonI9RectangleS2_E6FormatB5cxx11ERKS2_
FN:459,_ZN7testing8internal33FormatForComparisonFailureMessageI9RectangleS2_EENSt7__cxx1112basic_stringIcSt11char_traitsIcESaIcEEERKT_RKT0_
FNDA:0,_ZN7testing8internal33FormatForComparisonFailureMessageI9RectangleS2_EENSt7__cxx1112basic_stringIcSt11char_traitsIcESaIcEEERKT_RKT0_
FN:486,_ZN7testing8internal7PrintToI9RectangleEEvRKT_PSo
FNDA:0,_ZN7testing8internal7PrintToI9RectangleEEvRKT_PSo
FN:835,_ZN7testing8internal16UniversalPrinterI9RectangleE5PrintERKS2_PSo
FNDA:0,_ZN7testing8internal16UniversalPrinterI9RectangleE5PrintERKS2_PSo
FN:1025,_ZN7testing8internal21UniversalTersePrinterI9RectangleE5PrintERKS2_PSo
FNDA:0,_ZN7testing8internal21UniversalTersePrinterI9RectangleE5PrintERKS2_PSo
FN:1144,_ZN7testing8internal14UniversalPrintI9RectangleEEvRKT_PSo
FNDA:0,_ZN7testing8internal14UniversalPrintI9RectangleEEvRKT_PSo
FN:1184,_ZN7testing13PrintToStringI9RectangleEENSt7__cxx1112basic_stringIcSt11char_traitsIcESaIcEEERKT_
FNDA:0,_ZN7testing13PrintToStringI9RectangleEENSt7__cxx1112basic_stringIcSt11char_traitsIcESaIcEEERKT_
DA:311,0
DA:312,0
DA:315,0
DA:317,0
DA:348,0
DA:358,0
DA:359,0
DA:379,0
DA:380,0
DA:459,0
DA:461,0
DA:486,0
DA:487,0
DA:488,0
DA:835,0
DA:844,0
DA:845,0
DA:1025,0
DA:1026,0
DA:1027,0
DA:1144,0
DA:1148,0
DA:1149,0
DA:1184,0
DA:1185,0
DA:1186,0
DA:1187,0
DA:1188,0
end_of_record
SF:/home/glebas/Desktop/ППОИС/lab1/Header.h
FN:9,_ZN9RectangleC2Eiiii
FNDA:108,_ZN9RectangleC2Eiiii
DA:9,108
end_of_record
SF:/usr/include/c++/11/bits/char_traits.h
FN:393,_ZNSt11char_traitsIcE6lengthEPKc
FNDA:0,_ZNSt11char_traitsIcE6lengthEPKc
FN:429,_ZNSt11char_traitsIcE4copyEPcPKcm
FNDA:0,_ZNSt11char_traitsIcE4copyEPcPKcm
DA:393,0
DA:399,0
DA:429,0
DA:431,0
DA:432,0
DA:437,0
end_of_record
SF:/usr/include/c++/11/ext/type_traits.h
FN:152,_ZN9__gnu_cxx17__is_null_pointerIKcEEbPT_
FNDA:0,_ZN9__gnu_cxx17__is_null_pointerIKcEEbPT_
DA:152,0
DA:153,0
end_of_record
SF:/usr/include/c++/11/bits/stl_iterator_base_funcs.h
FN:98,_ZSt10__distanceIPKcENSt15iterator_traitsIT_E15difference_typeES3_S3_St26random_access_iterator_tag
FNDA:0,_ZSt10__distanceIPKcENSt15iterator_traitsIT_E15difference_typeES3_S3_St26random_access_iterator_tag
FN:138,_ZSt8distanceIPKcENSt15iterator_traitsIT_E15difference_typeES3_S3_
FNDA:0,_ZSt8distanceIPKcENSt15iterator_traitsIT_E15difference_typeES3_S3_
DA:98,0
DA:104,0
DA:138,0
DA:141,0
DA:142,0
end_of_record
SF:/usr/local/include/gtest/gtest.h
FN:255,_ZN7testing4Test14SetUpTestSuiteEv
FNDA:0,_ZN7testing4Test14SetUpTestSuiteEv
FN:263,_ZN7testing4Test17TearDownTestSuiteEv
FNDA:0,_ZN7testing4Test17TearDownTestSuiteEv
FN:268,_ZN7testing4Test16TearDownTestCaseEv
FNDA:0,_ZN7testing4Test16TearDownTestCaseEv
FN:269,_ZN7testing4Test13SetUpTestCaseEv
FNDA:0,_ZN7testing4Test13SetUpTestCaseEv
FN:356,_ZN7testing4Test5SetupEv
FNDA:0,_ZN7testing4Test5SetupEv
FN:1374,_ZN7testing8internal18CmpHelperEQFailureI9RectangleS2_EENS_15AssertionResultEPKcS5_RKT_RKT0_
FNDA:0,_ZN7testing8internal18CmpHelperEQFailureI9RectangleS2_EENS_15AssertionResultEPKcS5_RKT_RKT0_
FN:1391,_ZN7testing8internal11CmpHelperEQI9RectangleS2_EENS_15AssertionResultEPKcS5_RKT_RKT0_
FNDA:40,_ZN7testing8internal11CmpHelperEQI9RectangleS2_EENS_15AssertionResultEPKcS5_RKT_RKT0_
FN:1410,_ZN7testing8internal8EqHelper7CompareI9RectangleS3_LPv0EEENS_15AssertionResultEPKcS7_RKT_RKT0_
FNDA:40,_ZN7testing8internal8EqHelper7CompareI9RectangleS3_LPv0EEENS_15AssertionResultEPKcS7_RKT_RKT0_
FN:2334,_Z13RUN_ALL_TESTSv
FNDA:4,_Z13RUN_ALL_TESTSv
DA:255,0
DA:263,0
DA:268,0
DA:269,0
DA:356,0
DA:1374,0
DA:1379,0
DA:1391,40
DA:1394,40
DA:1395,40
DA:1398,0
DA:1410,40
DA:1413,40
DA:2334,4
end_of_record
SF:/usr/include/c++/11/bits/basic_string.tcc
FN:206,_ZNSt7__cxx1112basic_stringIcSt11char_traitsIcESaIcEE12_M_constructIPKcEEvT_S8_St20forward_iterator_tag
FNDA:0,_ZNSt7__cxx1112basic_stringIcSt11char_traitsIcESaIcEE12_M_constructIPKcEEvT_S8_St20forward_iterator_tag
DA:206,0
DA:211,0
DA:212,0
DA:215,0
DA:217,0
DA:219,0
DA:220,0
DA:225,0
DA:226,0
DA:228,0
DA:229,0
DA:232,0
DA:233,0
end_of_record
SF:/usr/local/include/gtest/internal/gtest-internal.h
FN:437,_ZN7testing8internal15TestFactoryBaseD0Ev
FNDA:0,_ZN7testing8internal15TestFactoryBaseD0Ev
FN:437,_ZN7testing8internal15TestFactoryBaseD2Ev
FNDA:32,_ZN7testing8internal15TestFactoryBaseD2Ev
FN:444,_ZN7testing8internal15TestFactoryBaseC2Ev
FNDA:32,_ZN7testing8internal15TestFactoryBaseC2Ev
FN:456,_ZN7testing8internal15TestFactoryImplI23RectangleTest_Move_TestE10CreateTestEv
FNDA:4,_ZN7testing8internal15TestFactoryImplI23RectangleTest_Move_TestE10CreateTestEv
FN:456,_ZN7testing8internal15TestFactoryImplI25RectangleTest_Resize_TestE10CreateTestEv
FNDA:4,_ZN7testing8internal15TestFactoryImplI25RectangleTest_Resize_TestE10CreateTestEv
FN:456,_ZN7testing8internal15TestFactoryImplI28RectangleTest_Increment_TestE10CreateTestEv
FNDA:4,_ZN7testing8internal15TestFactoryImplI28RectangleTest_Increment_TestE10CreateTestEv
FN:456,_ZN7testing8internal15TestFactoryImplI28RectangleTest_Decrement_TestE10CreateTestEv
FNDA:4,_ZN7testing8internal15TestFactoryImplI28RectangleTest_Decrement_TestE10CreateTestEv
FN:456,_ZN7testing8internal15TestFactoryImplI27RectangleTest_Addition_TestE10CreateTestEv
FNDA:4,_ZN7testing8internal15TestFactoryImplI27RectangleTest_Addition_TestE10CreateTestEv
FN:456,_ZN7testing8internal15TestFactoryImplI35RectangleTest_CompoundAddition_TestE10CreateTestEv
FNDA:4,_ZN7testing8internal15TestFactoryImplI35RectangleTest_CompoundAddition_TestE10CreateTestEv
FN:456,_ZN7testing8internal15TestFactoryImplI30RectangleTest_Subtraction_TestE10CreateTestEv
FNDA:4,_ZN7testing8internal15TestFactoryImplI30RectangleTest_Subtraction_TestE10CreateTestEv
FN:456,_ZN7testing8internal15TestFactoryImplI38RectangleTest_CompoundSubtraction_TestE10CreateTestEv
FNDA:4,_ZN7testing8internal15TestFactoryImplI38RectangleTest_CompoundSubtraction_TestE10CreateTestEv
FN:477,_ZN7testing8internal12CodeLocationC2ENSt7__cxx1112basic_stringIcSt11char_traitsIcESaIcEEEi
FNDA:32,_ZN7testing8internal12CodeLocationC2ENSt7__cxx1112basic_stringIcSt11char_traitsIcESaIcEEEi
FN:490,_ZN7testing8internal19GetNotDefaultOrNullEPFvvES2_
FNDA:128,_ZN7testing8internal19GetNotDefaultOrNullEPFvvES2_
FN:505,_ZN7testing8internal16SuiteApiResolverINS_4TestEE19GetSetUpCaseOrSuiteEPKci
FNDA:32,_ZN7testing8internal16SuiteApiResolverINS_4TestEE19GetSetUpCaseOrSuiteEPKci
FN:526,_ZN7testing8internal16SuiteApiResolverINS_4TestEE22GetTearDownCaseOrSuiteEPKci
FNDA:32,_ZN7testing8internal16SuiteApiResolverINS_4TestEE22GetTearDownCaseOrSuiteEPKci
DA:437,0
DA:437,32
DA:444,32
DA:456,4
DA:456,4
DA:456,4
DA:456,4
DA:456,4
DA:456,4
DA:456,4
DA:456,4
DA:477,32
DA:478,32
DA:490,128
DA:492,128
DA:505,32
DA:509,32
DA:511,32
DA:513,32
DA:516,0
DA:518,32
DA:526,32
DA:530,32
DA:532,32
DA:534,32
DA:537,0
DA:539,32
end_of_record
SF:/home/glebas/Desktop/ППОИС/lab1/test.cpp
FN:5,_ZN23RectangleTest_Move_TestC2Ev
FNDA:4,_ZN23RectangleTest_Move_TestC2Ev
FN:5,_ZN23RectangleTest_Move_Test8TestBodyEv
FNDA:4,_ZN23RectangleTest_Move_Test8TestBodyEv
FN:5,_ZN23RectangleTest_Move_TestD2Ev
FNDA:4,_ZN23RectangleTest_Move_TestD2Ev
FN:5,_ZN23RectangleTest_Move_TestD0Ev
FNDA:4,_ZN23RectangleTest_Move_TestD0Ev
FN:11,_ZN25RectangleTest_Resize_TestC2Ev
FNDA:4,_ZN25RectangleTest_Resize_TestC2Ev
FN:11,_ZN25RectangleTest_Resize_Test8TestBodyEv
FNDA:4,_ZN25RectangleTest_Resize_Test8TestBodyEv
FN:11,_ZN25RectangleTest_Resize_TestD2Ev
FNDA:4,_ZN25RectangleTest_Resize_TestD2Ev
FN:11,_ZN25RectangleTest_Resize_TestD0Ev
FNDA:4,_ZN25RectangleTest_Resize_TestD0Ev
FN:16,_ZN28RectangleTest_Increment_TestC2Ev
FNDA:4,_ZN28RectangleTest_Increment_TestC2Ev
FN:16,_ZN28RectangleTest_Increment_TestD0Ev
FNDA:4,_ZN28RectangleTest_Increment_TestD0Ev
FN:16,_ZN28RectangleTest_Increment_TestD2Ev
FNDA:4,_ZN28RectangleTest_Increment_TestD2Ev
FN:16,_ZN28RectangleTest_Increment_Test8TestBodyEv
FNDA:4,_ZN28RectangleTest_Increment_Test8TestBodyEv
FN:22,_ZN28RectangleTest_Decrement_Test8TestBodyEv
FNDA:4,_ZN28RectangleTest_Decrement_Test8TestBodyEv
FN:22,_ZN28RectangleTest_Decrement_TestD0Ev
FNDA:4,_ZN28RectangleTest_Decrement_TestD0Ev
FN:22,_ZN28RectangleTest_Decrement_TestD2Ev
FNDA:4,_ZN28RectangleTest_Decrement_TestD2Ev
FN:22,_ZN28RectangleTest_Decrement_TestC2Ev
FNDA:4,_ZN28RectangleTest_Decrement_TestC2Ev
FN:28,_ZN27RectangleTest_Addition_TestD2Ev
FNDA:4,_ZN27RectangleTest_Addition_TestD2Ev
FN:28,_ZN27RectangleTest_Addition_Test8TestBodyEv
FNDA:4,_ZN27RectangleTest_Addition_Test8TestBodyEv
FN:28,_ZN27RectangleTest_Addition_TestD0Ev
FNDA:4,_ZN27RectangleTest_Addition_TestD0Ev
FN:28,_ZN27RectangleTest_Addition_TestC2Ev
FNDA:4,_ZN27RectangleTest_Addition_TestC2Ev
FN:34,_ZN35RectangleTest_CompoundAddition_TestD0Ev
FNDA:4,_ZN35RectangleTest_CompoundAddition_TestD0Ev
FN:34,_ZN35RectangleTest_CompoundAddition_TestD2Ev
FNDA:4,_ZN35RectangleTest_CompoundAddition_TestD2Ev
FN:34,_ZN35RectangleTest_CompoundAddition_TestC2Ev
FNDA:4,_ZN35RectangleTest_CompoundAddition_TestC2Ev
FN:34,_ZN35RectangleTest_CompoundAddition_Test8TestBodyEv
FNDA:4,_ZN35RectangleTest_CompoundAddition_Test8TestBodyEv
FN:41,_ZN30RectangleTest_Subtraction_TestD0Ev
FNDA:4,_ZN30RectangleTest_Subtraction_TestD0Ev
FN:41,_ZN30RectangleTest_Subtraction_Test8TestBodyEv
FNDA:4,_ZN30RectangleTest_Subtraction_Test8TestBodyEv
FN:41,_ZN30RectangleTest_Subtraction_TestD2Ev
FNDA:4,_ZN30RectangleTest_Subtraction_TestD2Ev
FN:41,_ZN30RectangleTest_Subtraction_TestC2Ev
FNDA:4,_ZN30RectangleTest_Subtraction_TestC2Ev
FN:47,_ZN38RectangleTest_CompoundSubtraction_Test8TestBodyEv
FNDA:4,_ZN38RectangleTest_CompoundSubtraction_Test8TestBodyEv
FN:47,_ZN38RectangleTest_CompoundSubtraction_TestD2Ev
FNDA:4,_ZN38RectangleTest_CompoundSubtraction_TestD2Ev
FN:47,_ZN38RectangleTest_CompoundSubtraction_TestD0Ev
FNDA:4,_ZN38RectangleTest_CompoundSubtraction_TestD0Ev
FN:47,_ZN38RectangleTest_CompoundSubtraction_TestC2Ev
FNDA:4,_ZN38RectangleTest_CompoundSubtraction_TestC2Ev
FN:54,main
FNDA:4,main
DA:5,4
DA:5,4
DA:5,4
DA:5,4
DA:6,4
DA:8,4
DA:9,4
DA:11,4
DA:11,4
DA:11,4
DA:11,4
DA:12,4
DA:13,4
DA:14,4
DA:16,4
DA:16,4
DA:16,4
DA:16,4
DA:17,4
DA:18,4
DA:19,4
DA:20,4
DA:22,4
DA:22,4
DA:22,4
DA:22,4
DA:23,4
DA:24,4
DA:25,4
DA:26,4
DA:28,4
DA:28,4
DA:28,4
DA:28,4
DA:29,4
DA:30,4
DA:31,4
DA:32,4
DA:34,4
DA:34,4
DA:34,4
DA:34,4
DA:35,4
DA:36,4
DA:37,4
DA:38,4
DA:39,4
DA:41,4
DA:41,4
DA:41,4
DA:41,4
DA:42,4
DA:43,4
DA:44,4
DA:45,4
DA:47,4
DA:47,4
DA:47,4
DA:47,4
DA:48,4
DA:49,4
DA:50,4
DA:51,4
DA:52,4
DA:54,4
DA:55,4
DA:56,4
DA:57,4
end_of_record
SF:/usr/include/c++/11/bits/stl_iterator_base_types.h
FN:238,_ZSt19__iterator_categoryIPKcENSt15iterator_traitsIT_E17iterator_categoryERKS3_
FNDA:0,_ZSt19__iterator_categoryIPKcENSt15iterator_traitsIT_E17iterator_categoryERKS3_
DA:238,0
DA:239,0
end_of_record
SF:/usr/include/c++/11/iostream
end_of_record
SF:/usr/local/include/gtest/gtest-message.h
end_of_record
SF:/usr/include/c++/11/tuple
FN:124,_ZNSt10_Head_baseILm1ESt14default_deleteINSt7__cxx1118basic_stringstreamIcSt11char_traitsIcESaIcEEEELb1EE7_M_headERS8_
FNDA:240,_ZNSt10_Head_baseILm1ESt14default_deleteINSt7__cxx1118basic_stringstreamIcSt11char_traitsIcESaIcEEEELb1EE7_M_headERS8_
FN:124,_ZNSt10_Head_baseILm1ESt14default_deleteINSt7__cxx1112basic_stringIcSt11char_traitsIcESaIcEEEELb1EE7_M_headERS8_
FNDA:0,_ZNSt10_Head_baseILm1ESt14default_deleteINSt7__cxx1112basic_stringIcSt11char_traitsIcESaIcEEEELb1EE7_M_headERS8_
FN:233,_ZNSt10_Head_baseILm0EPNSt7__cxx1112basic_stringIcSt11char_traitsIcESaIcEEELb0EE7_M_headERS7_
FNDA:40,_ZNSt10_Head_baseILm0EPNSt7__cxx1112basic_stringIcSt11char_traitsIcESaIcEEELb0EE7_M_headERS7_
FN:233,_ZNSt10_Head_baseILm0EPNSt7__cxx1118basic_stringstreamIcSt11char_traitsIcESaIcEEELb0EE7_M_headERS7_
FNDA:480,_ZNSt10_Head_baseILm0EPNSt7__cxx1118basic_stringstreamIcSt11char_traitsIcESaIcEEELb0EE7_M_headERS7_
FN:236,_ZNSt10_Head_baseILm0EPNSt7__cxx1112basic_stringIcSt11char_traitsIcESaIcEEELb0EE7_M_headERKS7_
FNDA:0,_ZNSt10_Head_baseILm0EPNSt7__cxx1112basic_stringIcSt11char_traitsIcESaIcEEELb0EE7_M_headERKS7_
FN:268,_ZNSt11_Tuple_implILm0EJPNSt7__cxx1112basic_stringIcSt11char_traitsIcESaIcEEESt14default_deleteIS5_EEE7_M_headERS9_
FNDA:40,_ZNSt11_Tuple_implILm0EJPNSt7__cxx1112basic_stringIcSt11char_traitsIcESaIcEEESt14default_deleteIS5_EEE7_M_headERS9_
FN:268,_ZNSt11_Tuple_implILm0EJPNSt7__cxx1118basic_stringstreamIcSt11char_traitsIcESaIcEEESt14default_deleteIS5_EEE7_M_headERS9_
FNDA:480,_ZNSt11_Tuple_implILm0EJPNSt7__cxx1118basic_stringstreamIcSt11char_traitsIcESaIcEEESt14default_deleteIS5_EEE7_M_headERS9_
FN:271,_ZNSt11_Tuple_implILm0EJPNSt7__cxx1112basic_stringIcSt11char_traitsIcESaIcEEESt14default_deleteIS5_EEE7_M_headERKS9_
FNDA:0,_ZNSt11_Tuple_implILm0EJPNSt7__cxx1112basic_stringIcSt11char_traitsIcESaIcEEESt14default_deleteIS5_EEE7_M_headERKS9_
FN:424,_ZNSt11_Tuple_implILm1EJSt14default_deleteINSt7__cxx1118basic_stringstreamIcSt11char_traitsIcESaIcEEEEEE7_M_headERS8_
FNDA:240,_ZNSt11_Tuple_implILm1EJSt14default_deleteINSt7__cxx1118basic_stringstreamIcSt11char_traitsIcESaIcEEEEEE7_M_headERS8_
FN:424,_ZNSt11_Tuple_implILm1EJSt14default_deleteINSt7__cxx1112basic_stringIcSt11char_traitsIcESaIcEEEEEE7_M_headERS8_
FNDA:0,_ZNSt11_Tuple_implILm1EJSt14default_deleteINSt7__cxx1112basic_stringIcSt11char_traitsIcESaIcEEEEEE7_M_headERS8_
FN:1377,_ZSt12__get_helperILm1ESt14default_deleteINSt7__cxx1118basic_stringstreamIcSt11char_traitsIcESaIcEEEEJEERT0_RSt11_Tuple_implIXT_EJS8_DpT1_EE
FNDA:240,_ZSt12__get_helperILm1ESt14default_deleteINSt7__cxx1118basic_stringstreamIcSt11char_traitsIcESaIcEEEEJEERT0_RSt11_Tuple_implIXT_EJS8_DpT1_EE
FN:1377,_ZSt12__get_helperILm0EPNSt7__cxx1118basic_stringstreamIcSt11char_traitsIcESaIcEEEJSt14default_deleteIS5_EEERT0_RSt11_Tuple_implIXT_EJS9_DpT1_EE
FNDA:480,_ZSt12__get_helperILm0EPNSt7__cxx1118basic_stringstreamIcSt11char_traitsIcESaIcEEEJSt14default_deleteIS5_EEERT0_RSt11_Tuple_implIXT_EJS9_DpT1_EE
FN:1377,_ZSt12__get_helperILm0EPNSt7__cxx1112basic_stringIcSt11char_traitsIcESaIcEEEJSt14default_deleteIS5_EEERT0_RSt11_Tuple_implIXT_EJS9_DpT1_EE
FNDA:40,_ZSt12__get_helperILm0EPNSt7__cxx1112basic_stringIcSt11char_traitsIcESaIcEEEJSt14default_deleteIS5_EEERT0_RSt11_Tuple_implIXT_EJS9_DpT1_EE
FN:1377,_ZSt12__get_helperILm1ESt14default_deleteINSt7__cxx1112basic_stringIcSt11char_traitsIcESaIcEEEEJEERT0_RSt11_Tuple_implIXT_EJS8_DpT1_EE
FNDA:0,_ZSt12__get_helperILm1ESt14default_deleteINSt7__cxx1112basic_stringIcSt11char_traitsIcESaIcEEEEJEERT0_RSt11_Tuple_implIXT_EJS8_DpT1_EE
FN:1382,_ZSt12__get_helperILm0EPNSt7__cxx1112basic_stringIcSt11char_traitsIcESaIcEEEJSt14default_deleteIS5_EEERKT0_RKSt11_Tuple_implIXT_EJS9_DpT1_EE
FNDA:0,_ZSt12__get_helperILm0EPNSt7__cxx1112basic_stringIcSt11char_traitsIcESaIcEEEJSt14default_deleteIS5_EEERKT0_RKSt11_Tuple_implIXT_EJS9_DpT1_EE
FN:1393,_ZSt3getILm1EJPNSt7__cxx1118basic_stringstreamIcSt11char_traitsIcESaIcEEESt14default_deleteIS5_EEERNSt13tuple_elementIXT_ESt5tupleIJDpT0_EEE4typeERSD_
FNDA:240,_ZSt3getILm1EJPNSt7__cxx1118basic_stringstreamIcSt11char_traitsIcESaIcEEESt14default_deleteIS5_EEERNSt13tuple_elementIXT_ESt5tupleIJDpT0_EEE4typeERSD_
FN:1393,_ZSt3getILm1EJPNSt7__cxx1112basic_stringIcSt11char_traitsIcESaIcEEESt14default_deleteIS5_EEERNSt13tuple_elementIXT_ESt5tupleIJDpT0_EEE4typeERSD_
FNDA:0,_ZSt3getILm1EJPNSt7__cxx1112basic_stringIcSt11char_traitsIcESaIcEEESt14default_deleteIS5_EEERNSt13tuple_elementIXT_ESt5tupleIJDpT0_EEE4typeERSD_
FN:1393,_ZSt3getILm0EJPNSt7__cxx1112basic_stringIcSt11char_traitsIcESaIcEEESt14default_deleteIS5_EEERNSt13tuple_elementIXT_ESt5tupleIJDpT0_EEE4typeERSD_
FNDA:40,_ZSt3getILm0EJPNSt7__cxx1112basic_stringIcSt11char_traitsIcESaIcEEESt14default_deleteIS5_EEERNSt13tuple_elementIXT_ESt5tupleIJDpT0_EEE4typeERSD_
FN:1393,_ZSt3getILm0EJPNSt7__cxx1118basic_stringstreamIcSt11char_traitsIcESaIcEEESt14default_deleteIS5_EEERNSt13tuple_elementIXT_ESt5tupleIJDpT0_EEE4typeERSD_
FNDA:480,_ZSt3getILm0EJPNSt7__cxx1118basic_stringstreamIcSt11char_traitsIcESaIcEEESt14default_deleteIS5_EEERNSt13tuple_elementIXT_ESt5tupleIJDpT0_EEE4typeERSD_
FN:1399,_ZSt3getILm0EJPNSt7__cxx1112basic_stringIcSt11char_traitsIcESaIcEEESt14default_deleteIS5_EEERKNSt13tuple_elementIXT_ESt5tupleIJDpT0_EEE4typeERKSD_
FNDA:0,_ZSt3getILm0EJPNSt7__cxx1112basic_stringIcSt11char_traitsIcESaIcEEESt14default_deleteIS5_EEERKNSt13tuple_elementIXT_ESt5tupleIJDpT0_EEE4typeERKSD_
DA:124,240
DA:124,0
DA:233,40
DA:233,480
DA:236,0
DA:268,40
DA:268,480
DA:271,0
DA:424,240
DA:424,0
DA:1377,240
DA:1378,240
DA:1377,0
DA:1378,0
DA:1377,40
DA:1378,40
DA:1377,480
DA:1378,480
DA:1382,0
DA:1383,0
DA:1393,240
DA:1394,240
DA:1393,0
DA:1394,0
DA:1393,40
DA:1394,40
DA:1393,480
DA:1394,480
DA:1399,0
DA:1400,0
end_of_record
SF:/usr/include/c++/11/bits/move.h
FN:49,_ZSt11__addressofIK9RectangleEPT_RS2_
FNDA:0,_ZSt11__addressofIK9RectangleEPT_RS2_
FN:104,_ZSt4moveIRPNSt7__cxx1112basic_stringIcSt11char_traitsIcESaIcEEEEONSt16remove_referenceIT_E4typeEOS9_
FNDA:0,_ZSt4moveIRPNSt7__cxx1112basic_stringIcSt11char_traitsIcESaIcEEEEONSt16remove_referenceIT_E4typeEOS9_
FN:104,_ZSt4moveIRPNSt7__cxx1118basic_stringstreamIcSt11char_traitsIcESaIcEEEEONSt16remove_referenceIT_E4typeEOS9_
FNDA:240,_ZSt4moveIRPNSt7__cxx1118basic_stringstreamIcSt11char_traitsIcESaIcEEEEONSt16remove_referenceIT_E4typeEOS9_
FN:104,_ZSt4moveIRSaIcEEONSt16remove_referenceIT_E4typeEOS3_
FNDA:0,_ZSt4moveIRSaIcEEONSt16remove_referenceIT_E4typeEOS3_
FN:104,_ZSt4moveIRNSt7__cxx1112basic_stringIcSt11char_traitsIcESaIcEEEEONSt16remove_referenceIT_E4typeEOS8_
FNDA:340,_ZSt4moveIRNSt7__cxx1112basic_stringIcSt11char_traitsIcESaIcEEEEONSt16remove_referenceIT_E4typeEOS8_
FN:145,_ZSt9addressofIK9RectangleEPT_RS2_
FNDA:0,_ZSt9addressofIK9RectangleEPT_RS2_
DA:49,0
DA:50,0
DA:104,0
DA:105,0
DA:104,240
DA:105,240
DA:104,0
DA:105,0
DA:104,340
DA:105,340
DA:145,0
DA:146,0
end_of_record
SF:/usr/include/c++/11/ext/new_allocator.h
FN:79,_ZN9__gnu_cxx13new_allocatorIcEC2Ev
FNDA:0,_ZN9__gnu_cxx13new_allocatorIcEC2Ev
FN:89,_ZN9__gnu_cxx13new_allocatorIcED2Ev
FNDA:0,_ZN9__gnu_cxx13new_allocatorIcED2Ev
DA:79,0
DA:89,0
end_of_record
SF:/usr/local/include/gtest/gtest-assertion-result.h
FN:174,_ZNK7testing15AssertionResultcvbEv
FNDA:40,_ZNK7testing15AssertionResultcvbEv
FN:183,_ZNK7testing15AssertionResult7messageEv
FNDA:0,_ZNK7testing15AssertionResult7messageEv
FN:187,_ZNK7testing15AssertionResult15failure_messageEv
FNDA:0,_ZNK7testing15AssertionResult15failure_messageEv
DA:174,40
DA:183,0
DA:184,0
DA:187,0
end_of_record
SF:/usr/include/c++/11/bits/basic_string.h
end_of_record
